target datalayout = "e-m:e-p270:32:32-p271:32:32-p272:64:64-i64:64-i128:128-f80:128-n8:16:32:64-S128"
target triple = "x86_64-unknown-linux-gnu"

@.str.107 = private unnamed_addr constant [12 x i8] c"qio-channel\00", align 1
@.str.108 = private unnamed_addr constant [99 x i8] c"/home/dtcxzyw/WorkSpace/Projects/compilers/llvm-opt-benchmark/bench/qemu/qemu/include/io/channel.h\00", align 1
@__func__.QIO_CHANNEL = private unnamed_addr constant [12 x i8] c"QIO_CHANNEL\00", align 1

; Function Attrs: nounwind sspstrong uwtable
define internal void @glib_autoptr_clear_QIOChannel(ptr noundef %_ptr) #0 {
entry:
  %_ptr.addr = alloca ptr, align 8
  store ptr %_ptr, ptr %_ptr.addr, align 8
  %0 = load ptr, ptr %_ptr.addr, align 8
  %tobool = icmp ne ptr %0, null
  br i1 %tobool, label %if.then, label %if.end

if.then:                                          ; preds = %entry
  %1 = load ptr, ptr %_ptr.addr, align 8
  call void @object_unref(ptr noundef %1)
  br label %if.end

if.end:                                           ; preds = %if.then, %entry
  ret void
}

; Function Attrs: nounwind sspstrong uwtable
define internal void @glib_autoptr_cleanup_QIOChannel(ptr noundef %_ptr) #0 {
entry:
  %_ptr.addr = alloca ptr, align 8
  store ptr %_ptr, ptr %_ptr.addr, align 8
  %0 = load ptr, ptr %_ptr.addr, align 8
  %1 = load ptr, ptr %0, align 8
  call void @glib_autoptr_clear_QIOChannel(ptr noundef %1)
  ret void
}

; Function Attrs: nounwind sspstrong uwtable
define internal ptr @QIO_CHANNEL(ptr noundef %obj) #0 {
entry:
  %obj.addr = alloca ptr, align 8
  store ptr %obj, ptr %obj.addr, align 8
  %0 = load ptr, ptr %obj.addr, align 8
  %call = call ptr @object_dynamic_cast_assert(ptr noundef %0, ptr noundef @.str.107, ptr noundef @.str.108, i32 noundef 30, ptr noundef @__func__.QIO_CHANNEL)
  ret ptr %call
}

; Function Attrs: nounwind sspstrong uwtable
define internal void @postcopy_preempt_tls_handshake(ptr noundef %task, ptr noundef %opaque) #0 {
entry:
  %task.addr = alloca ptr, align 8
  %opaque.addr = alloca ptr, align 8
  %ioc = alloca ptr, align 8
  %s = alloca ptr, align 8
  %local_err = alloca ptr, align 8
  store ptr %task, ptr %task.addr, align 8
  store ptr %opaque, ptr %opaque.addr, align 8
  %0 = load ptr, ptr %task.addr, align 8
  %call = call ptr @qio_task_get_source(ptr noundef %0)
  %call1 = call ptr @QIO_CHANNEL(ptr noundef %call)
  store ptr %call1, ptr %ioc, align 8
  %1 = load ptr, ptr %opaque.addr, align 8
  store ptr %1, ptr %s, align 8
  store ptr null, ptr %local_err, align 8
  %2 = load ptr, ptr %task.addr, align 8
  %call2 = call zeroext i1 @qio_task_propagate_error(ptr noundef %2, ptr noundef %local_err)
  %3 = load ptr, ptr %s, align 8
  %4 = load ptr, ptr %ioc, align 8
  %5 = load ptr, ptr %local_err, align 8
  call void @postcopy_preempt_send_channel_done(ptr noundef %3, ptr noundef %4, ptr noundef %5)
  call void @glib_autoptr_cleanup_QIOChannel(ptr noundef %ioc)
  ret void
}