; Function Attrs: nounwind sspstrong uwtable
define internal void @postcopy_preempt_tls_handshake(ptr noundef %task, ptr noundef %opaque) #0 {
entry:
  %local_err = alloca ptr, align 8
  %call = tail call ptr @qio_task_get_source(ptr noundef %task) #16
  %call.i = tail call ptr @object_dynamic_cast_assert(ptr noundef %call, ptr noundef nonnull @.str.107, ptr noundef nonnull @.str.108, i32 noundef 30, ptr noundef nonnull @__func__.QIO_CHANNEL) #16
  store ptr null, ptr %local_err, align 8
  %call2 = call zeroext i1 @qio_task_propagate_error(ptr noundef %task, ptr noundef nonnull %local_err) #16
  %0 = load ptr, ptr %local_err, align 8
  call fastcc void @postcopy_preempt_send_channel_done(ptr noundef %opaque, ptr noundef %call.i, ptr noundef %0)
  %tobool.not.i.i = icmp eq ptr %call.i, null
  br i1 %tobool.not.i.i, label %glib_autoptr_cleanup_QIOChannel.exit, label %if.then.i.i

if.then.i.i:                                      ; preds = %entry
  call void @object_unref(ptr noundef nonnull %call.i) #16
  br label %glib_autoptr_cleanup_QIOChannel.exit

glib_autoptr_cleanup_QIOChannel.exit:             ; preds = %entry, %if.then.i.i
  ret void
}